target datalayout = "e-m:e-p270:32:32-p271:32:32-p272:64:64-i64:64-i128:128-f80:128-n8:16:32:64-S128"
target triple = "x86_64-pc-linux-gnu"

%struct.ct_data_s = type { %union.anon, %union.anon.0 }
%union.anon = type { i16 }
%union.anon.0 = type { i16 }
%struct.internal_state = type { ptr, i32, ptr, i64, ptr, i32, i32, ptr, i32, i8, i32, i32, i32, i32, ptr, i64, ptr, ptr, i32, i32, i32, i32, i32, i64, i32, i32, i32, i32, i32, i32, i32, i32, i32, i32, i32, i32, i32, [573 x %struct.ct_data_s], [61 x %struct.ct_data_s], [39 x %struct.ct_data_s], %struct.tree_desc_s, %struct.tree_desc_s, %struct.tree_desc_s, [16 x i16], [573 x i32], i32, i32, [573 x i8], ptr, i32, i32, ptr, i64, i64, i32, i32, i16, i32, i64 }
%struct.tree_desc_s = type { ptr, i32, ptr }

; Function Attrs: nounwind uwtable
define internal void @bi_flush(ptr noundef %0) #0 {
  %2 = alloca ptr, align 8
  store ptr %0, ptr %2, align 8, !tbaa !3
  %3 = load ptr, ptr %2, align 8, !tbaa !3
  %4 = getelementptr inbounds nuw %struct.internal_state, ptr %3, i32 0, i32 57
  %5 = load i32, ptr %4, align 4, !tbaa !26
  %6 = icmp eq i32 %5, 16
  br i1 %6, label %7, label %42

7:                                                ; preds = %1
  %8 = load ptr, ptr %2, align 8, !tbaa !3
  %9 = getelementptr inbounds nuw %struct.internal_state, ptr %8, i32 0, i32 56
  %10 = load i16, ptr %9, align 8, !tbaa !25
  %11 = zext i16 %10 to i32
  %12 = and i32 %11, 255
  %13 = trunc i32 %12 to i8
  %14 = load ptr, ptr %2, align 8, !tbaa !3
  %15 = getelementptr inbounds nuw %struct.internal_state, ptr %14, i32 0, i32 2
  %16 = load ptr, ptr %15, align 8, !tbaa !39
  %17 = load ptr, ptr %2, align 8, !tbaa !3
  %18 = getelementptr inbounds nuw %struct.internal_state, ptr %17, i32 0, i32 5
  %19 = load i32, ptr %18, align 8, !tbaa !40
  %20 = add i32 %19, 1
  store i32 %20, ptr %18, align 8, !tbaa !40
  %21 = zext i32 %19 to i64
  %22 = getelementptr inbounds nuw i8, ptr %16, i64 %21
  store i8 %13, ptr %22, align 1, !tbaa !28
  %23 = load ptr, ptr %2, align 8, !tbaa !3
  %24 = getelementptr inbounds nuw %struct.internal_state, ptr %23, i32 0, i32 56
  %25 = load i16, ptr %24, align 8, !tbaa !25
  %26 = zext i16 %25 to i32
  %27 = ashr i32 %26, 8
  %28 = trunc i32 %27 to i8
  %29 = load ptr, ptr %2, align 8, !tbaa !3
  %30 = getelementptr inbounds nuw %struct.internal_state, ptr %29, i32 0, i32 2
  %31 = load ptr, ptr %30, align 8, !tbaa !39
  %32 = load ptr, ptr %2, align 8, !tbaa !3
  %33 = getelementptr inbounds nuw %struct.internal_state, ptr %32, i32 0, i32 5
  %34 = load i32, ptr %33, align 8, !tbaa !40
  %35 = add i32 %34, 1
  store i32 %35, ptr %33, align 8, !tbaa !40
  %36 = zext i32 %34 to i64
  %37 = getelementptr inbounds nuw i8, ptr %31, i64 %36
  store i8 %28, ptr %37, align 1, !tbaa !28
  %38 = load ptr, ptr %2, align 8, !tbaa !3
  %39 = getelementptr inbounds nuw %struct.internal_state, ptr %38, i32 0, i32 56
  store i16 0, ptr %39, align 8, !tbaa !25
  %40 = load ptr, ptr %2, align 8, !tbaa !3
  %41 = getelementptr inbounds nuw %struct.internal_state, ptr %40, i32 0, i32 57
  store i32 0, ptr %41, align 4, !tbaa !26
  br label %72

42:                                               ; preds = %1
  %43 = load ptr, ptr %2, align 8, !tbaa !3
  %44 = getelementptr inbounds nuw %struct.internal_state, ptr %43, i32 0, i32 57
  %45 = load i32, ptr %44, align 4, !tbaa !26
  %46 = icmp sge i32 %45, 8
  br i1 %46, label %47, label %71

47:                                               ; preds = %42
  %48 = load ptr, ptr %2, align 8, !tbaa !3
  %49 = getelementptr inbounds nuw %struct.internal_state, ptr %48, i32 0, i32 56
  %50 = load i16, ptr %49, align 8, !tbaa !25
  %51 = trunc i16 %50 to i8
  %52 = load ptr, ptr %2, align 8, !tbaa !3
  %53 = getelementptr inbounds nuw %struct.internal_state, ptr %52, i32 0, i32 2
  %54 = load ptr, ptr %53, align 8, !tbaa !39
  %55 = load ptr, ptr %2, align 8, !tbaa !3
  %56 = getelementptr inbounds nuw %struct.internal_state, ptr %55, i32 0, i32 5
  %57 = load i32, ptr %56, align 8, !tbaa !40
  %58 = add i32 %57, 1
  store i32 %58, ptr %56, align 8, !tbaa !40
  %59 = zext i32 %57 to i64
  %60 = getelementptr inbounds nuw i8, ptr %54, i64 %59
  store i8 %51, ptr %60, align 1, !tbaa !28
  %61 = load ptr, ptr %2, align 8, !tbaa !3
  %62 = getelementptr inbounds nuw %struct.internal_state, ptr %61, i32 0, i32 56
  %63 = load i16, ptr %62, align 8, !tbaa !25
  %64 = zext i16 %63 to i32
  %65 = ashr i32 %64, 8
  %66 = trunc i32 %65 to i16
  store i16 %66, ptr %62, align 8, !tbaa !25
  %67 = load ptr, ptr %2, align 8, !tbaa !3
  %68 = getelementptr inbounds nuw %struct.internal_state, ptr %67, i32 0, i32 57
  %69 = load i32, ptr %68, align 4, !tbaa !26
  %70 = sub nsw i32 %69, 8
  store i32 %70, ptr %68, align 4, !tbaa !26
  br label %71

71:                                               ; preds = %47, %42
  br label %72

72:                                               ; preds = %71, %7
  ret void
}

; Function Attrs: nounwind uwtable
define void @_tr_flush_bits(ptr noundef %0) #0 {
  %2 = alloca ptr, align 8
  store ptr %0, ptr %2, align 8, !tbaa !3
  %3 = load ptr, ptr %2, align 8, !tbaa !3
  call void @bi_flush(ptr noundef %3)
  ret void
}