; Function Attrs: mustprogress nofree norecurse nosync nounwind willreturn memory(write, argmem: readwrite, inaccessiblemem: none) uwtable
define void @_tr_flush_bits(ptr noundef captures(none) %0) local_unnamed_addr #3 {
  %2 = getelementptr inbounds nuw i8, ptr %0, i64 5924
  %3 = load i32, ptr %2, align 4, !tbaa !24
  %4 = icmp eq i32 %3, 16
  br i1 %4, label %5, label %24

5:                                                ; preds = %1
  %6 = getelementptr inbounds nuw i8, ptr %0, i64 5920
  %7 = load i16, ptr %6, align 8, !tbaa !23
  %8 = trunc i16 %7 to i8
  %9 = getelementptr inbounds nuw i8, ptr %0, i64 16
  %10 = load ptr, ptr %9, align 8, !tbaa !31
  %11 = getelementptr inbounds nuw i8, ptr %0, i64 40
  %12 = load i32, ptr %11, align 8, !tbaa !32
  %13 = add i32 %12, 1
  store i32 %13, ptr %11, align 8, !tbaa !32
  %14 = zext i32 %12 to i64
  %15 = getelementptr inbounds nuw i8, ptr %10, i64 %14
  store i8 %8, ptr %15, align 1, !tbaa !25
  %16 = load i16, ptr %6, align 8, !tbaa !23
  %17 = lshr i16 %16, 8
  %18 = trunc nuw i16 %17 to i8
  %19 = load ptr, ptr %9, align 8, !tbaa !31
  %20 = load i32, ptr %11, align 8, !tbaa !32
  %21 = add i32 %20, 1
  store i32 %21, ptr %11, align 8, !tbaa !32
  %22 = zext i32 %20 to i64
  %23 = getelementptr inbounds nuw i8, ptr %19, i64 %22
  store i8 %18, ptr %23, align 1, !tbaa !25
  store i16 0, ptr %6, align 8, !tbaa !23
  br label %.sink.split.i

24:                                               ; preds = %1
  %25 = icmp sgt i32 %3, 7
  br i1 %25, label %26, label %bi_flush.exit

26:                                               ; preds = %24
  %27 = getelementptr inbounds nuw i8, ptr %0, i64 5920
  %28 = load i16, ptr %27, align 8, !tbaa !23
  %29 = trunc i16 %28 to i8
  %30 = getelementptr inbounds nuw i8, ptr %0, i64 16
  %31 = load ptr, ptr %30, align 8, !tbaa !31
  %32 = getelementptr inbounds nuw i8, ptr %0, i64 40
  %33 = load i32, ptr %32, align 8, !tbaa !32
  %34 = add i32 %33, 1
  store i32 %34, ptr %32, align 8, !tbaa !32
  %35 = zext i32 %33 to i64
  %36 = getelementptr inbounds nuw i8, ptr %31, i64 %35
  store i8 %29, ptr %36, align 1, !tbaa !25
  %37 = load i16, ptr %27, align 8, !tbaa !23
  %38 = lshr i16 %37, 8
  store i16 %38, ptr %27, align 8, !tbaa !23
  %39 = load i32, ptr %2, align 4, !tbaa !24
  %40 = add nsw i32 %39, -8
  br label %.sink.split.i

.sink.split.i:                                    ; preds = %26, %5
  %.sink.i = phi i32 [ %40, %26 ], [ 0, %5 ]
  store i32 %.sink.i, ptr %2, align 4, !tbaa !24
  br label %bi_flush.exit

bi_flush.exit:                                    ; preds = %24, %.sink.split.i
  ret void
}